target datalayout = "e-m:e-p270:32:32-p271:32:32-p272:64:64-i64:64-i128:128-f80:128-n8:16:32:64-S128"
target triple = "x86_64-pc-linux-gnu"

%struct.store_engine = type { %union.pthread_mutex_t, ptr, ptr, ptr, ptr, ptr, ptr, ptr, i64, i32, i32, i32, i32, i32, i32, i32, i32, %union.pthread_mutex_t, %struct.extstore_stats, %struct.store_maint }
%union.pthread_mutex_t = type { %struct.__pthread_mutex_s }
%struct.__pthread_mutex_s = type { i32, i32, i32, i32, i32, i16, i16, %struct.__pthread_internal_list }
%struct.__pthread_internal_list = type { ptr, ptr }
%struct.extstore_stats = type { i64, i64, i64, i64, i64, i64, i64, i64, i64, i64, i64, i64, i64, i64, i64, i64, i64, ptr }
%struct.store_maint = type { %union.pthread_mutex_t }
%struct.store_io_thread = type { %union.pthread_mutex_t, %union.pthread_cond_t, ptr, ptr, ptr, i32 }
%union.pthread_cond_t = type { %struct.__pthread_cond_s }
%struct.__pthread_cond_s = type { %union.__atomic_wide_counter, %union.__atomic_wide_counter, [2 x i32], [2 x i32], i32, i32, [2 x i32] }
%union.__atomic_wide_counter = type { i64 }

; Function Attrs: nounwind uwtable
define dso_local void @extstore_get_stats(ptr noundef %0, ptr noundef %1) #0 {
  %3 = alloca ptr, align 8
  %4 = alloca ptr, align 8
  %5 = alloca ptr, align 8
  %6 = alloca i32, align 4
  store ptr %0, ptr %3, align 8, !tbaa !4
  store ptr %1, ptr %4, align 8, !tbaa !8
  call void @llvm.lifetime.start.p0(i64 8, ptr %5) #8
  %7 = load ptr, ptr %3, align 8, !tbaa !4
  store ptr %7, ptr %5, align 8, !tbaa !10
  %8 = load ptr, ptr %5, align 8, !tbaa !10
  %9 = getelementptr inbounds nuw %struct.store_engine, ptr %8, i32 0, i32 17
  %10 = call i32 @pthread_mutex_lock(ptr noundef %9) #8
  %11 = load ptr, ptr %4, align 8, !tbaa !8
  %12 = load ptr, ptr %5, align 8, !tbaa !10
  %13 = getelementptr inbounds nuw %struct.store_engine, ptr %12, i32 0, i32 18
  call void @llvm.memcpy.p0.p0.i64(ptr align 8 %11, ptr align 8 %13, i64 144, i1 false)
  %14 = load ptr, ptr %5, align 8, !tbaa !10
  %15 = getelementptr inbounds nuw %struct.store_engine, ptr %14, i32 0, i32 17
  %16 = call i32 @pthread_mutex_unlock(ptr noundef %15) #8
  %17 = load ptr, ptr %5, align 8, !tbaa !10
  %18 = getelementptr inbounds nuw %struct.store_engine, ptr %17, i32 0, i32 0
  %19 = call i32 @pthread_mutex_lock(ptr noundef %18) #8
  %20 = load ptr, ptr %5, align 8, !tbaa !10
  %21 = getelementptr inbounds nuw %struct.store_engine, ptr %20, i32 0, i32 13
  %22 = load i32, ptr %21, align 8, !tbaa !12
  %23 = zext i32 %22 to i64
  %24 = load ptr, ptr %4, align 8, !tbaa !8
  %25 = getelementptr inbounds nuw %struct.extstore_stats, ptr %24, i32 0, i32 5
  store i64 %23, ptr %25, align 8, !tbaa !23
  %26 = load ptr, ptr %5, align 8, !tbaa !10
  %27 = getelementptr inbounds nuw %struct.store_engine, ptr %26, i32 0, i32 12
  %28 = load i32, ptr %27, align 4, !tbaa !24
  %29 = load ptr, ptr %5, align 8, !tbaa !10
  %30 = getelementptr inbounds nuw %struct.store_engine, ptr %29, i32 0, i32 13
  %31 = load i32, ptr %30, align 8, !tbaa !12
  %32 = sub i32 %28, %31
  %33 = zext i32 %32 to i64
  %34 = load ptr, ptr %4, align 8, !tbaa !8
  %35 = getelementptr inbounds nuw %struct.extstore_stats, ptr %34, i32 0, i32 6
  store i64 %33, ptr %35, align 8, !tbaa !25
  %36 = load ptr, ptr %5, align 8, !tbaa !10
  %37 = getelementptr inbounds nuw %struct.store_engine, ptr %36, i32 0, i32 0
  %38 = call i32 @pthread_mutex_unlock(ptr noundef %37) #8
  %39 = load ptr, ptr %4, align 8, !tbaa !8
  %40 = getelementptr inbounds nuw %struct.extstore_stats, ptr %39, i32 0, i32 16
  store i64 0, ptr %40, align 8, !tbaa !26
  call void @llvm.lifetime.start.p0(i64 4, ptr %6) #8
  store i32 0, ptr %6, align 4, !tbaa !27
  br label %41

41:                                               ; preds = %78, %2
  %42 = load i32, ptr %6, align 4, !tbaa !27
  %43 = load ptr, ptr %5, align 8, !tbaa !10
  %44 = getelementptr inbounds nuw %struct.store_engine, ptr %43, i32 0, i32 11
  %45 = load i32, ptr %44, align 8, !tbaa !28
  %46 = icmp ult i32 %42, %45
  br i1 %46, label %48, label %47

47:                                               ; preds = %41
  call void @llvm.lifetime.end.p0(i64 4, ptr %6) #8
  br label %81

48:                                               ; preds = %41
  %49 = load ptr, ptr %5, align 8, !tbaa !10
  %50 = getelementptr inbounds nuw %struct.store_engine, ptr %49, i32 0, i32 4
  %51 = load ptr, ptr %50, align 8, !tbaa !29
  %52 = load i32, ptr %6, align 4, !tbaa !27
  %53 = sext i32 %52 to i64
  %54 = getelementptr inbounds %struct.store_io_thread, ptr %51, i64 %53
  %55 = getelementptr inbounds nuw %struct.store_io_thread, ptr %54, i32 0, i32 0
  %56 = call i32 @pthread_mutex_lock(ptr noundef %55) #8
  %57 = load ptr, ptr %5, align 8, !tbaa !10
  %58 = getelementptr inbounds nuw %struct.store_engine, ptr %57, i32 0, i32 4
  %59 = load ptr, ptr %58, align 8, !tbaa !29
  %60 = load i32, ptr %6, align 4, !tbaa !27
  %61 = sext i32 %60 to i64
  %62 = getelementptr inbounds %struct.store_io_thread, ptr %59, i64 %61
  %63 = getelementptr inbounds nuw %struct.store_io_thread, ptr %62, i32 0, i32 5
  %64 = load i32, ptr %63, align 8, !tbaa !30
  %65 = zext i32 %64 to i64
  %66 = load ptr, ptr %4, align 8, !tbaa !8
  %67 = getelementptr inbounds nuw %struct.extstore_stats, ptr %66, i32 0, i32 16
  %68 = load i64, ptr %67, align 8, !tbaa !26
  %69 = add i64 %68, %65
  store i64 %69, ptr %67, align 8, !tbaa !26
  %70 = load ptr, ptr %5, align 8, !tbaa !10
  %71 = getelementptr inbounds nuw %struct.store_engine, ptr %70, i32 0, i32 4
  %72 = load ptr, ptr %71, align 8, !tbaa !29
  %73 = load i32, ptr %6, align 4, !tbaa !27
  %74 = sext i32 %73 to i64
  %75 = getelementptr inbounds %struct.store_io_thread, ptr %72, i64 %74
  %76 = getelementptr inbounds nuw %struct.store_io_thread, ptr %75, i32 0, i32 0
  %77 = call i32 @pthread_mutex_unlock(ptr noundef %76) #8
  br label %78

78:                                               ; preds = %48
  %79 = load i32, ptr %6, align 4, !tbaa !27
  %80 = add nsw i32 %79, 1
  store i32 %80, ptr %6, align 4, !tbaa !27
  br label %41, !llvm.loop !32

81:                                               ; preds = %47
  %82 = load ptr, ptr %4, align 8, !tbaa !8
  %83 = getelementptr inbounds nuw %struct.extstore_stats, ptr %82, i32 0, i32 6
  %84 = load i64, ptr %83, align 8, !tbaa !25
  %85 = load ptr, ptr %5, align 8, !tbaa !10
  %86 = getelementptr inbounds nuw %struct.store_engine, ptr %85, i32 0, i32 8
  %87 = load i64, ptr %86, align 8, !tbaa !34
  %88 = mul i64 %84, %87
  %89 = load ptr, ptr %4, align 8, !tbaa !8
  %90 = getelementptr inbounds nuw %struct.extstore_stats, ptr %89, i32 0, i32 14
  %91 = load i64, ptr %90, align 8, !tbaa !35
  %92 = sub i64 %88, %91
  %93 = load ptr, ptr %4, align 8, !tbaa !8
  %94 = getelementptr inbounds nuw %struct.extstore_stats, ptr %93, i32 0, i32 15
  store i64 %92, ptr %94, align 8, !tbaa !36
  call void @llvm.lifetime.end.p0(i64 8, ptr %5) #8
  ret void
}