; Function Attrs: nounwind uwtable
define dso_local void @extstore_get_stats(ptr noundef %0, ptr noundef captures(none) initializes((0, 144)) %1) local_unnamed_addr #0 {
  %3 = getelementptr inbounds nuw i8, ptr %0, i64 136
  %4 = tail call i32 @pthread_mutex_lock(ptr noundef nonnull %3) #13
  %5 = getelementptr inbounds nuw i8, ptr %0, i64 176
  tail call void @llvm.memcpy.p0.p0.i64(ptr noundef nonnull align 8 dereferenceable(144) %1, ptr noundef nonnull align 8 dereferenceable(144) %5, i64 144, i1 false)
  %6 = tail call i32 @pthread_mutex_unlock(ptr noundef nonnull %3) #13
  %7 = tail call i32 @pthread_mutex_lock(ptr noundef %0) #13
  %8 = getelementptr inbounds nuw i8, ptr %0, i64 120
  %9 = load i32, ptr %8, align 8, !tbaa !4
  %10 = zext i32 %9 to i64
  %11 = getelementptr inbounds nuw i8, ptr %1, i64 40
  store i64 %10, ptr %11, align 8, !tbaa !18
  %12 = getelementptr inbounds nuw i8, ptr %0, i64 116
  %13 = load i32, ptr %12, align 4, !tbaa !19
  %14 = sub i32 %13, %9
  %15 = zext i32 %14 to i64
  %16 = getelementptr inbounds nuw i8, ptr %1, i64 48
  store i64 %15, ptr %16, align 8, !tbaa !20
  %17 = tail call i32 @pthread_mutex_unlock(ptr noundef %0) #13
  %18 = getelementptr inbounds nuw i8, ptr %1, i64 128
  store i64 0, ptr %18, align 8, !tbaa !21
  %19 = getelementptr inbounds nuw i8, ptr %0, i64 112
  %20 = load i32, ptr %19, align 8, !tbaa !22
  %.not = icmp eq i32 %20, 0
  br i1 %.not, label %._crit_edge, label %.lr.ph

.lr.ph:                                           ; preds = %2
  %21 = getelementptr inbounds nuw i8, ptr %0, i64 64
  br label %30

._crit_edge:                                      ; preds = %30, %2
  %22 = load i64, ptr %16, align 8, !tbaa !20
  %23 = getelementptr inbounds nuw i8, ptr %0, i64 96
  %24 = load i64, ptr %23, align 8, !tbaa !23
  %25 = mul i64 %24, %22
  %26 = getelementptr inbounds nuw i8, ptr %1, i64 112
  %27 = load i64, ptr %26, align 8, !tbaa !24
  %28 = sub i64 %25, %27
  %29 = getelementptr inbounds nuw i8, ptr %1, i64 120
  store i64 %28, ptr %29, align 8, !tbaa !25
  ret void

30:                                               ; preds = %.lr.ph, %30
  %indvars.iv = phi i64 [ 0, %.lr.ph ], [ %indvars.iv.next, %30 ]
  %31 = load ptr, ptr %21, align 8, !tbaa !26
  %32 = getelementptr inbounds nuw %struct.store_io_thread, ptr %31, i64 %indvars.iv
  %33 = tail call i32 @pthread_mutex_lock(ptr noundef %32) #13
  %34 = load ptr, ptr %21, align 8, !tbaa !26
  %35 = getelementptr inbounds nuw %struct.store_io_thread, ptr %34, i64 %indvars.iv, i32 5
  %36 = load i32, ptr %35, align 8, !tbaa !27
  %37 = zext i32 %36 to i64
  %38 = load i64, ptr %18, align 8, !tbaa !21
  %39 = add i64 %38, %37
  store i64 %39, ptr %18, align 8, !tbaa !21
  %40 = getelementptr inbounds nuw %struct.store_io_thread, ptr %34, i64 %indvars.iv
  %41 = tail call i32 @pthread_mutex_unlock(ptr noundef %40) #13
  %indvars.iv.next = add nuw nsw i64 %indvars.iv, 1
  %42 = load i32, ptr %19, align 8, !tbaa !22
  %43 = zext i32 %42 to i64
  %44 = icmp samesign ult i64 %indvars.iv.next, %43
  br i1 %44, label %30, label %._crit_edge, !llvm.loop !30
}